Certificate:
    Data:
        Version: 3 (0x2)
        Serial Number: 2 (0x2)
    Signature Algorithm: sha256WithRSAEncryption
        Issuer: C=US, ST=CA, L=SanJose, O=SJSU, OU=CMPE, CN=netgearsv/name=EasyRSA/emailAddress=wysclb@126.com
        Validity
            Not Before: Jun  6 00:47:25 2013 GMT
            Not After : Jun  4 00:47:25 2023 GMT
        Subject: C=US, ST=CA, L=SanJose, O=SJSU, OU=CMPE, CN=clientlbc/name=EasyRSA/emailAddress=wysclb@126.com
        Subject Public Key Info:
            Public Key Algorithm: rsaEncryption
                Public-Key: (2048 bit)
                Modulus:
                    00:bc:5d:ba:7d:f9:e9:6f:b4:86:fe:00:e4:10:60:
                    3b:35:7d:74:10:28:16:27:6e:95:a1:b7:20:20:6a:
                    1e:f9:72:4b:55:e8:09:d6:94:8e:01:91:d5:eb:7a:
                    d2:03:e9:48:de:fe:5b:9b:ae:12:a4:07:01:dd:13:
                    1b:41:81:18:ae:ef:7c:5d:0d:5c:97:d0:ac:4a:3c:
                    d5:26:51:76:f2:24:0c:b5:39:f2:e0:3b:0d:25:99:
                    a8:b7:1b:dd:ff:8a:8d:8c:6c:53:a7:d4:fd:e0:00:
                    ef:1f:d5:3d:64:e8:88:bb:b5:78:79:7f:4a:85:0a:
                    a7:bf:b0:4c:a0:c8:3d:92:20:09:93:62:04:17:e5:
                    4e:e5:f1:08:7d:bc:a2:e1:59:c2:12:7b:b2:7b:65:
                    18:0d:74:61:5f:7f:80:e6:7c:85:b6:c5:c7:62:08:
                    06:ae:e8:3c:8b:56:63:84:35:3c:fb:95:35:63:17:
                    7a:f2:6b:a6:87:07:60:7e:be:55:61:47:df:f2:2b:
                    b3:a6:f5:6c:6e:da:53:cc:73:c3:11:41:b7:24:2b:
                    95:d9:11:96:13:b0:03:bb:68:18:0d:5b:cc:73:6f:
                    28:59:7d:93:b7:74:18:97:46:c2:8e:a2:4c:69:8d:
                    4e:e9:ea:48:50:49:8c:65:7e:df:6f:0f:19:97:40:
                    6b:6b
                Exponent: 65537 (0x10001)
        X509v3 extensions:
            X509v3 Basic Constraints: 
                CA:FALSE
            Netscape Comment: 
                Easy-RSA Generated Certificate
            X509v3 Subject Key Identifier: 
                27:6C:DE:73:5E:A4:7A:5E:64:6B:B2:29:EF:26:12:F6:0E:BB:65:E7
            X509v3 Authority Key Identifier: 
                keyid:8E:A3:DF:1C:C5:31:7E:C7:5D:00:48:7D:CC:E2:0C:F6:FF:5F:5E:A2
                DirName:/C=US/ST=CA/L=SanJose/O=SJSU/OU=CMPE/CN=netgearsv/name=EasyRSA/emailAddress=wysclb@126.com
                serial:B5:43:B3:52:A8:6F:49:88

            X509v3 Extended Key Usage: 
                TLS Web Client Authentication
            X509v3 Key Usage: 
                Digital Signature
    Signature Algorithm: sha256WithRSAEncryption
         5e:08:2b:d7:30:84:41:84:2d:e0:4c:db:fb:63:a4:f2:73:18:
         d7:ec:65:6f:48:c2:4f:31:8c:1b:4f:34:82:a0:0d:46:4a:67:
         e1:5b:4c:05:e6:d0:4b:e5:26:34:4b:fa:5e:13:e8:35:43:16:
         68:f0:f2:e7:d1:3b:05:c9:41:7a:7b:ee:a6:84:34:20:6a:65:
         8c:cc:15:b6:6c:d0:86:20:d2:0e:af:b9:7c:26:a3:e7:00:fa:
         30:d0:a4:10:5f:e8:cc:00:4b:8d:0c:0d:a5:ce:bc:b2:19:62:
         b3:73:e7:93:96:fa:66:4f:32:b4:d2:cb:14:e4:d5:5b:d2:00:
         8c:7a:87:8f:a8:8e:0c:7b:a6:27:c0:b6:0a:b6:f9:fd:df:37:
         a3:4e:43:be:f2:67:85:fe:ef:a7:9a:ec:cf:75:39:bc:81:30:
         1b:b2:e1:cf:a0:43:ef:b3:b9:89:e8:d3:d3:d0:ac:a9:39:45:
         9c:9e:09:7c:e8:49:f5:eb:3d:08:d3:c4:5a:d8:39:73:e2:20:
         07:82:80:55:27:9f:a9:93:82:6f:2e:cd:ae:e1:0c:8d:04:fb:
         2e:d8:21:ef:99:84:db:78:a0:52:8e:2b:79:4d:a7:97:27:56:
         d3:65:de:b1:4f:50:bf:f3:bb:6d:94:98:eb:b0:e6:0b:c6:e8:
         90:a0:31:0f
-----BEGIN CERTIFICATE-----
MIIE4zCCA8ugAwIBAgIBAjANBgkqhkiG9w0BAQsFADCBjzELMAkGA1UEBhMCVVMx
CzAJBgNVBAgTAkNBMRAwDgYDVQQHEwdTYW5Kb3NlMQ0wCwYDVQQKEwRTSlNVMQ0w
CwYDVQQLEwRDTVBFMRIwEAYDVQQDEwluZXRnZWFyc3YxEDAOBgNVBCkTB0Vhc3lS
U0ExHTAbBgkqhkiG9w0BCQEWDnd5c2NsYkAxMjYuY29tMB4XDTEzMDYwNjAwNDcy
NVoXDTIzMDYwNDAwNDcyNVowgY8xCzAJBgNVBAYTAlVTMQswCQYDVQQIEwJDQTEQ
MA4GA1UEBxMHU2FuSm9zZTENMAsGA1UEChMEU0pTVTENMAsGA1UECxMEQ01QRTES
MBAGA1UEAxMJY2xpZW50bGJjMRAwDgYDVQQpEwdFYXN5UlNBMR0wGwYJKoZIhvcN
AQkBFg53eXNjbGJAMTI2LmNvbTCCASIwDQYJKoZIhvcNAQEBBQADggEPADCCAQoC
ggEBALxdun356W+0hv4A5BBgOzV9dBAoFidulaG3ICBqHvlyS1XoCdaUjgGR1et6
0gPpSN7+W5uuEqQHAd0TG0GBGK7vfF0NXJfQrEo81SZRdvIkDLU58uA7DSWZqLcb
3f+KjYxsU6fU/eAA7x/VPWToiLu1eHl/SoUKp7+wTKDIPZIgCZNiBBflTuXxCH28
ouFZwhJ7sntlGA10YV9/gOZ8hbbFx2IIBq7oPItWY4Q1PPuVNWMXevJrpocHYH6+
VWFH3/Irs6b1bG7aU8xzwxFBtyQrldkRlhOwA7toGA1bzHNvKFl9k7d0GJdGwo6i
TGmNTunqSFBJjGV+328PGZdAa2sCAwEAAaOCAUYwggFCMAkGA1UdEwQCMAAwLQYJ
YIZIAYb4QgENBCAWHkVhc3ktUlNBIEdlbmVyYXRlZCBDZXJ0aWZpY2F0ZTAdBgNV
HQ4EFgQUJ2zec16kel5ka7Ip7yYS9g67ZecwgcQGA1UdIwSBvDCBuYAUjqPfHMUx
fsddAEh9zOIM9v9fXqKhgZWkgZIwgY8xCzAJBgNVBAYTAlVTMQswCQYDVQQIEwJD
QTEQMA4GA1UEBxMHU2FuSm9zZTENMAsGA1UEChMEU0pTVTENMAsGA1UECxMEQ01Q
RTESMBAGA1UEAxMJbmV0Z2VhcnN2MRAwDgYDVQQpEwdFYXN5UlNBMR0wGwYJKoZI
hvcNAQkBFg53eXNjbGJAMTI2LmNvbYIJALVDs1Kob0mIMBMGA1UdJQQMMAoGCCsG
AQUFBwMCMAsGA1UdDwQEAwIHgDANBgkqhkiG9w0BAQsFAAOCAQEAXggr1zCEQYQt
4Ezb+2Ok8nMY1+xlb0jCTzGMG080gqANRkpn4VtMBebQS+UmNEv6XhPoNUMWaPDy
59E7BclBenvupoQ0IGpljMwVtmzQhiDSDq+5fCaj5wD6MNCkEF/ozABLjQwNpc68
shlis3Pnk5b6Zk8ytNLLFOTVW9IAjHqHj6iODHumJ8C2Crb5/d83o05DvvJnhf7v
p5rsz3U5vIEwG7Lhz6BD77O5iejT09CsqTlFnJ4JfOhJ9es9CNPEWtg5c+IgB4KA
VSefqZOCby7NruEMjQT7Ltgh75mE23igUo4reU2nlydW02XesU9Qv/O7bZSY67Dm
C8bokKAxDw==
-----END CERTIFICATE-----
