Certificate:
    Data:
        Version: 3 (0x2)
        Serial Number: 1 (0x1)
    Signature Algorithm: sha256WithRSAEncryption
        Issuer: C=US, ST=California, L=SanJose, O=sjsu, OU=cmpe, CN=sjsu CA/name=EasyRSA/emailAddress=lbchen@gmail.com
        Validity
            Not Before: Jun  9 07:10:31 2013 GMT
            Not After : Jun  7 07:10:31 2023 GMT
        Subject: C=US, ST=California, L=SanJose, O=sjsu, OU=cmpe, CN=server/name=EasyRSA/emailAddress=lbchen@gmail.com
        Subject Public Key Info:
            Public Key Algorithm: rsaEncryption
                Public-Key: (2048 bit)
                Modulus:
                    00:bd:21:b7:c1:f9:a7:4e:44:1f:d4:76:b3:df:fd:
                    0a:9b:7d:69:16:87:cc:26:a7:42:a8:30:84:37:2c:
                    12:b4:6e:72:f5:ae:e6:9f:3c:49:c9:a3:de:db:fc:
                    1e:9c:79:17:3a:f5:4c:e3:0a:76:0a:c7:79:43:36:
                    85:16:8b:f6:0d:48:81:10:96:5b:0f:60:e6:1c:2f:
                    9f:f2:12:40:24:d4:64:04:7a:0e:ca:6e:0c:b5:0c:
                    00:ba:7e:83:93:9a:b7:0b:50:0f:c1:e2:53:70:aa:
                    ac:07:91:c9:3f:7a:62:39:e0:09:8f:55:ac:ee:92:
                    0f:7b:4f:2a:1c:b9:0a:e1:cf:23:09:c9:7e:e3:ad:
                    9e:8e:5c:d8:a1:65:ad:1e:e0:a4:96:9c:ec:8d:39:
                    ec:32:59:30:de:b1:3a:c9:28:4b:91:94:ff:85:d2:
                    cc:36:f1:12:4e:ea:0f:98:10:ee:09:92:b4:dc:c6:
                    5c:c7:f1:40:33:e9:d2:60:67:58:61:99:d6:b3:eb:
                    f2:0a:ad:ab:5a:8b:65:09:ec:14:df:0d:31:31:ed:
                    73:66:d6:19:16:2f:a7:68:ee:e1:aa:d2:38:11:ee:
                    8f:07:bf:f7:10:41:a6:e7:e4:72:62:fd:7a:d8:70:
                    d9:4e:4e:41:c3:fc:bf:8b:63:45:60:9a:6b:b5:d2:
                    c2:f1
                Exponent: 65537 (0x10001)
        X509v3 extensions:
            X509v3 Basic Constraints: 
                CA:FALSE
            Netscape Cert Type: 
                SSL Server
            Netscape Comment: 
                Easy-RSA Generated Server Certificate
            X509v3 Subject Key Identifier: 
                8E:BC:26:0C:45:BC:4E:4A:F4:33:E7:09:AC:90:C5:75:FD:3E:A0:35
            X509v3 Authority Key Identifier: 
                keyid:CC:7E:9C:98:7A:A9:4A:0D:8D:CA:7B:23:91:31:DA:52:70:70:91:A4
                DirName:/C=US/ST=California/L=SanJose/O=sjsu/OU=cmpe/CN=sjsu CA/name=EasyRSA/emailAddress=lbchen@gmail.com
                serial:87:44:80:F6:65:09:EE:AA

            X509v3 Extended Key Usage: 
                TLS Web Server Authentication
            X509v3 Key Usage: 
                Digital Signature, Key Encipherment
    Signature Algorithm: sha256WithRSAEncryption
         8c:1f:d1:87:37:76:72:d6:e3:6d:12:63:b0:ef:f1:2c:26:f3:
         59:de:8b:44:a3:bc:83:13:c1:9f:4f:3b:ca:fa:90:74:f5:46:
         46:30:7d:4e:f5:18:18:f0:a3:26:e0:43:95:9f:76:0c:3c:47:
         e5:32:4e:9b:c3:60:e4:9c:cc:d9:ab:8b:bb:db:c5:e6:f4:55:
         3a:68:13:8a:5e:ae:a9:71:bf:b9:16:67:be:e2:05:a3:c3:22:
         65:80:9d:ef:f9:7a:c8:31:99:eb:d9:38:0c:13:90:f0:ae:d9:
         14:a9:d2:38:08:b0:c0:a7:0f:26:5e:79:07:1a:c5:7b:55:41:
         10:9e:93:44:c6:b3:58:af:99:05:4f:c3:2b:80:a4:dd:37:c0:
         8a:7c:21:42:20:54:8f:57:2e:da:01:5a:51:07:fc:29:69:2e:
         ce:d4:5b:71:9c:30:97:89:91:e4:d4:39:2e:4d:6f:68:a6:4e:
         9b:69:66:aa:7c:bf:5a:8b:18:2e:d4:d3:b9:7f:45:7e:8f:9d:
         ce:84:a6:c9:d8:ea:85:f3:79:fd:fa:e7:7b:ca:2f:f4:c7:70:
         a5:81:ec:20:00:ce:61:6a:af:9c:37:bf:3b:ec:1a:0e:f4:09:
         90:be:18:44:46:ad:3c:a4:f1:20:71:69:6c:27:08:80:15:0c:
         cd:04:14:b0
-----BEGIN CERTIFICATE-----
MIIFFDCCA/ygAwIBAgIBATANBgkqhkiG9w0BAQsFADCBlzELMAkGA1UEBhMCVVMx
EzARBgNVBAgTCkNhbGlmb3JuaWExEDAOBgNVBAcTB1Nhbkpvc2UxDTALBgNVBAoT
BHNqc3UxDTALBgNVBAsTBGNtcGUxEDAOBgNVBAMTB3Nqc3UgQ0ExEDAOBgNVBCkT
B0Vhc3lSU0ExHzAdBgkqhkiG9w0BCQEWEGxiY2hlbkBnbWFpbC5jb20wHhcNMTMw
NjA5MDcxMDMxWhcNMjMwNjA3MDcxMDMxWjCBljELMAkGA1UEBhMCVVMxEzARBgNV
BAgTCkNhbGlmb3JuaWExEDAOBgNVBAcTB1Nhbkpvc2UxDTALBgNVBAoTBHNqc3Ux
DTALBgNVBAsTBGNtcGUxDzANBgNVBAMTBnNlcnZlcjEQMA4GA1UEKRMHRWFzeVJT
QTEfMB0GCSqGSIb3DQEJARYQbGJjaGVuQGdtYWlsLmNvbTCCASIwDQYJKoZIhvcN
AQEBBQADggEPADCCAQoCggEBAL0ht8H5p05EH9R2s9/9Cpt9aRaHzCanQqgwhDcs
ErRucvWu5p88Scmj3tv8Hpx5Fzr1TOMKdgrHeUM2hRaL9g1IgRCWWw9g5hwvn/IS
QCTUZAR6DspuDLUMALp+g5OatwtQD8HiU3CqrAeRyT96YjngCY9VrO6SD3tPKhy5
CuHPIwnJfuOtno5c2KFlrR7gpJac7I057DJZMN6xOskoS5GU/4XSzDbxEk7qD5gQ
7gmStNzGXMfxQDPp0mBnWGGZ1rPr8gqtq1qLZQnsFN8NMTHtc2bWGRYvp2ju4arS
OBHujwe/9xBBpufkcmL9ethw2U5OQcP8v4tjRWCaa7XSwvECAwEAAaOCAWgwggFk
MAkGA1UdEwQCMAAwEQYJYIZIAYb4QgEBBAQDAgZAMDQGCWCGSAGG+EIBDQQnFiVF
YXN5LVJTQSBHZW5lcmF0ZWQgU2VydmVyIENlcnRpZmljYXRlMB0GA1UdDgQWBBSO
vCYMRbxOSvQz5wmskMV1/T6gNTCBzAYDVR0jBIHEMIHBgBTMfpyYeqlKDY3KeyOR
MdpScHCRpKGBnaSBmjCBlzELMAkGA1UEBhMCVVMxEzARBgNVBAgTCkNhbGlmb3Ju
aWExEDAOBgNVBAcTB1Nhbkpvc2UxDTALBgNVBAoTBHNqc3UxDTALBgNVBAsTBGNt
cGUxEDAOBgNVBAMTB3Nqc3UgQ0ExEDAOBgNVBCkTB0Vhc3lSU0ExHzAdBgkqhkiG
9w0BCQEWEGxiY2hlbkBnbWFpbC5jb22CCQCHRID2ZQnuqjATBgNVHSUEDDAKBggr
BgEFBQcDATALBgNVHQ8EBAMCBaAwDQYJKoZIhvcNAQELBQADggEBAIwf0Yc3dnLW
420SY7Dv8Swm81nei0SjvIMTwZ9PO8r6kHT1RkYwfU71GBjwoybgQ5Wfdgw8R+Uy
TpvDYOSczNmri7vbxeb0VTpoE4perqlxv7kWZ77iBaPDImWAne/5esgxmevZOAwT
kPCu2RSp0jgIsMCnDyZeeQcaxXtVQRCek0TGs1ivmQVPwyuApN03wIp8IUIgVI9X
LtoBWlEH/ClpLs7UW3GcMJeJkeTUOS5Nb2imTptpZqp8v1qLGC7U07l/RX6Pnc6E
psnY6oXzef3653vKL/THcKWB7CAAzmFqr5w3vzvsGg70CZC+GERGrTyk8SBxaWwn
CIAVDM0EFLA=
-----END CERTIFICATE-----
