Certificate:
    Data:
        Version: 3 (0x2)
        Serial Number: 2 (0x2)
    Signature Algorithm: sha256WithRSAEncryption
        Issuer: C=US, ST=California, L=SanJose, O=sjsu, OU=cmpe, CN=sjsu CA/name=EasyRSA/emailAddress=lbchen@gmail.com
        Validity
            Not Before: Jun  9 17:54:37 2013 GMT
            Not After : Jun  7 17:54:37 2023 GMT
        Subject: C=US, ST=California, L=SanJose, O=sjsu, OU=cmpe, CN=client/name=EasyRSA/emailAddress=lbchen@gmail.com
        Subject Public Key Info:
            Public Key Algorithm: rsaEncryption
                Public-Key: (2048 bit)
                Modulus:
                    00:b8:17:d7:6b:62:d2:28:1f:fe:42:7b:0c:0f:ef:
                    f4:e1:14:dd:48:2a:89:4f:f1:52:bb:65:a6:64:e5:
                    32:08:18:ba:4b:5b:4a:50:3d:e6:ef:5f:ba:32:9c:
                    e6:94:3b:ea:30:c8:cd:ae:f2:3f:67:8c:02:f2:21:
                    d6:39:80:70:82:07:52:0e:51:4e:4f:ed:3b:ce:0b:
                    a8:20:90:2e:9a:06:9b:38:69:ff:90:f5:bc:13:d8:
                    e7:d4:89:fc:b0:61:56:6b:d5:2f:4b:59:34:9d:bb:
                    96:d4:5a:52:a8:5d:7e:48:89:99:8e:19:d2:85:39:
                    46:b6:4c:d8:e3:61:e5:02:14:c2:c9:17:a8:6a:e5:
                    be:f1:06:20:b0:fb:08:f9:bd:cd:e9:7f:e1:f9:05:
                    b7:cd:c0:9a:de:db:b1:a0:0e:2e:4e:61:d7:32:61:
                    57:cc:33:e7:91:64:88:78:d9:71:9c:40:44:d5:7c:
                    54:3b:3a:00:a2:84:cb:a8:e0:ee:ef:b1:30:89:a4:
                    95:75:a2:02:dd:e8:c2:52:fd:50:08:12:bd:fd:b1:
                    d7:03:3a:51:87:24:12:d0:10:c2:96:02:d6:33:3b:
                    b0:d1:c7:35:50:41:d7:db:b7:16:d2:9b:b2:b8:c2:
                    92:94:90:06:26:08:5e:13:5d:d5:24:72:bc:f5:0f:
                    d2:97
                Exponent: 65537 (0x10001)
        X509v3 extensions:
            X509v3 Basic Constraints: 
                CA:FALSE
            Netscape Comment: 
                Easy-RSA Generated Certificate
            X509v3 Subject Key Identifier: 
                A5:20:BA:31:E1:F8:54:AC:46:45:E0:8B:6D:11:06:ED:F3:87:E2:90
            X509v3 Authority Key Identifier: 
                keyid:CC:7E:9C:98:7A:A9:4A:0D:8D:CA:7B:23:91:31:DA:52:70:70:91:A4
                DirName:/C=US/ST=California/L=SanJose/O=sjsu/OU=cmpe/CN=sjsu CA/name=EasyRSA/emailAddress=lbchen@gmail.com
                serial:87:44:80:F6:65:09:EE:AA

            X509v3 Extended Key Usage: 
                TLS Web Client Authentication
            X509v3 Key Usage: 
                Digital Signature
    Signature Algorithm: sha256WithRSAEncryption
         4e:2d:b9:17:f3:f2:b6:9a:36:d6:43:9d:35:06:ae:66:26:f2:
         84:48:8d:46:87:a6:5b:d5:b6:22:05:8a:45:8f:72:c7:a3:de:
         1d:11:42:53:fb:0b:f3:33:1f:d9:86:ae:5e:00:a1:68:a6:86:
         e0:e7:2b:d8:29:4b:b1:ef:1e:67:66:d8:a3:b4:f6:c0:65:5a:
         06:a4:6f:3a:6b:b0:e6:75:a6:a1:c1:cd:6c:e8:20:4f:ff:90:
         96:c1:d5:c6:a6:81:33:18:42:48:fd:e7:b3:31:2f:8f:03:bb:
         03:3f:5d:f7:4c:7c:e5:2b:b6:63:1a:6a:26:d3:b7:9d:78:39:
         44:a9:9f:16:4c:87:28:e2:68:79:38:5e:86:09:4a:b2:05:29:
         07:8a:d4:46:89:c8:39:bc:f8:1c:14:37:7e:f1:9b:fb:b2:6f:
         8a:60:cf:fd:ce:74:0c:35:58:21:b5:e0:34:07:2a:b0:4b:df:
         96:ad:7c:fe:31:af:55:e4:5b:cc:08:a7:64:ce:2c:b2:da:56:
         b7:c5:03:c6:ed:ad:13:1b:59:ba:0a:d4:51:1f:d0:34:6d:a5:
         67:a0:3f:1d:dd:73:be:c9:9e:3d:22:a9:54:af:6b:09:1b:87:
         9b:4e:f1:1d:57:94:22:31:f0:4b:4c:9f:43:59:c9:1b:a2:a3:
         0b:8a:35:3d
-----BEGIN CERTIFICATE-----
MIIE+jCCA+KgAwIBAgIBAjANBgkqhkiG9w0BAQsFADCBlzELMAkGA1UEBhMCVVMx
EzARBgNVBAgTCkNhbGlmb3JuaWExEDAOBgNVBAcTB1Nhbkpvc2UxDTALBgNVBAoT
BHNqc3UxDTALBgNVBAsTBGNtcGUxEDAOBgNVBAMTB3Nqc3UgQ0ExEDAOBgNVBCkT
B0Vhc3lSU0ExHzAdBgkqhkiG9w0BCQEWEGxiY2hlbkBnbWFpbC5jb20wHhcNMTMw
NjA5MTc1NDM3WhcNMjMwNjA3MTc1NDM3WjCBljELMAkGA1UEBhMCVVMxEzARBgNV
BAgTCkNhbGlmb3JuaWExEDAOBgNVBAcTB1Nhbkpvc2UxDTALBgNVBAoTBHNqc3Ux
DTALBgNVBAsTBGNtcGUxDzANBgNVBAMTBmNsaWVudDEQMA4GA1UEKRMHRWFzeVJT
QTEfMB0GCSqGSIb3DQEJARYQbGJjaGVuQGdtYWlsLmNvbTCCASIwDQYJKoZIhvcN
AQEBBQADggEPADCCAQoCggEBALgX12ti0igf/kJ7DA/v9OEU3UgqiU/xUrtlpmTl
MggYuktbSlA95u9fujKc5pQ76jDIza7yP2eMAvIh1jmAcIIHUg5RTk/tO84LqCCQ
LpoGmzhp/5D1vBPY59SJ/LBhVmvVL0tZNJ27ltRaUqhdfkiJmY4Z0oU5RrZM2ONh
5QIUwskXqGrlvvEGILD7CPm9zel/4fkFt83Amt7bsaAOLk5h1zJhV8wz55FkiHjZ
cZxARNV8VDs6AKKEy6jg7u+xMImklXWiAt3owlL9UAgSvf2x1wM6UYckEtAQwpYC
1jM7sNHHNVBB19u3FtKbsrjCkpSQBiYIXhNd1SRyvPUP0pcCAwEAAaOCAU4wggFK
MAkGA1UdEwQCMAAwLQYJYIZIAYb4QgENBCAWHkVhc3ktUlNBIEdlbmVyYXRlZCBD
ZXJ0aWZpY2F0ZTAdBgNVHQ4EFgQUpSC6MeH4VKxGReCLbREG7fOH4pAwgcwGA1Ud
IwSBxDCBwYAUzH6cmHqpSg2NynsjkTHaUnBwkaShgZ2kgZowgZcxCzAJBgNVBAYT
AlVTMRMwEQYDVQQIEwpDYWxpZm9ybmlhMRAwDgYDVQQHEwdTYW5Kb3NlMQ0wCwYD
VQQKEwRzanN1MQ0wCwYDVQQLEwRjbXBlMRAwDgYDVQQDEwdzanN1IENBMRAwDgYD
VQQpEwdFYXN5UlNBMR8wHQYJKoZIhvcNAQkBFhBsYmNoZW5AZ21haWwuY29tggkA
h0SA9mUJ7qowEwYDVR0lBAwwCgYIKwYBBQUHAwIwCwYDVR0PBAQDAgeAMA0GCSqG
SIb3DQEBCwUAA4IBAQBOLbkX8/K2mjbWQ501Bq5mJvKESI1Gh6Zb1bYiBYpFj3LH
o94dEUJT+wvzMx/Zhq5eAKFopobg5yvYKUux7x5nZtijtPbAZVoGpG86a7Dmdaah
wc1s6CBP/5CWwdXGpoEzGEJI/eezMS+PA7sDP133THzlK7ZjGmom07edeDlEqZ8W
TIco4mh5OF6GCUqyBSkHitRGicg5vPgcFDd+8Zv7sm+KYM/9znQMNVghteA0Byqw
S9+WrXz+Ma9V5FvMCKdkziyy2la3xQPG7a0TG1m6CtRRH9A0baVnoD8d3XO+yZ49
IqlUr2sJG4ebTvEdV5QiMfBLTJ9DWckboqMLijU9
-----END CERTIFICATE-----
